target datalayout = "e-m:e-p270:32:32-p271:32:32-p272:64:64-i64:64-i128:128-f80:128-n8:16:32:64-S128"
target triple = "x86_64-pc-linux-gnu"

%struct.mbedtls_ssl_context = type { ptr, i32, i32, i32, i32, i32, ptr, ptr, ptr, ptr, ptr, ptr, ptr, ptr, ptr, ptr, ptr, ptr, ptr, ptr, ptr, ptr, ptr, ptr, ptr, ptr, ptr, ptr, ptr, ptr, ptr, ptr, ptr, i32, i64, i64, i16, i64, i64, i64, i64, i32, i32, i8, i8, i32, i8, ptr, ptr, ptr, ptr, ptr, ptr, ptr, i32, i64, i64, [8 x i8], i16, ptr, ptr, ptr, i64, i32, i64, [12 x i8], [12 x i8], [32 x i8], i8, i8, ptr, ptr, %union.mbedtls_ssl_user_data_t }
%union.mbedtls_ssl_user_data_t = type { i64 }
%struct.mbedtls_ssl_handshake_params = type { i8, i8, i8, i8, i8, i32, i8, i8, i8, i8, ptr, ptr, ptr, ptr, ptr, i8, i8, i8, i8, i16, i16, [20 x i16], ptr, ptr, %struct.mbedtls_dhm_context, %struct.mbedtls_ecdh_context, i16, i64, i32, i8, [1024 x i8], i64, ptr, ptr, i64, i16, ptr, ptr, ptr, ptr, %struct.anon, ptr, i16, i8, i32, i32, i32, ptr, ptr, ptr, i32, ptr, [8 x i8], i8, [32 x i8], i8, i16, %struct.mbedtls_md_context_t, %struct.mbedtls_md_context_t, i16, i8, %union.anon.1, [64 x i8], [1076 x i8], i64, i32, i32, i8, ptr, ptr, %union.anon.4, %struct.mbedtls_ssl_tls13_handshake_secrets, ptr, i64, ptr }
%struct.mbedtls_dhm_context = type { %struct.mbedtls_mpi, %struct.mbedtls_mpi, %struct.mbedtls_mpi, %struct.mbedtls_mpi, %struct.mbedtls_mpi, %struct.mbedtls_mpi, %struct.mbedtls_mpi, %struct.mbedtls_mpi, %struct.mbedtls_mpi, %struct.mbedtls_mpi }
%struct.mbedtls_mpi = type { ptr, i16, i16 }
%struct.mbedtls_ecdh_context = type { i8, i32, i32, %union.anon }
%union.anon = type { %struct.mbedtls_ecdh_context_mbed }
%struct.mbedtls_ecdh_context_mbed = type { %struct.mbedtls_ecp_group, %struct.mbedtls_mpi, %struct.mbedtls_ecp_point, %struct.mbedtls_ecp_point, %struct.mbedtls_mpi }
%struct.mbedtls_ecp_group = type { i32, %struct.mbedtls_mpi, %struct.mbedtls_mpi, %struct.mbedtls_mpi, %struct.mbedtls_ecp_point, %struct.mbedtls_mpi, i64, i64, i32, ptr, ptr, ptr, ptr, ptr, i64 }
%struct.mbedtls_ecp_point = type { %struct.mbedtls_mpi, %struct.mbedtls_mpi, %struct.mbedtls_mpi }
%struct.anon = type { i64, i8, [4 x %struct.mbedtls_ssl_hs_buffer], %struct.anon.0 }
%struct.mbedtls_ssl_hs_buffer = type { i8, ptr, i64 }
%struct.anon.0 = type { ptr, i64, i32 }
%struct.mbedtls_md_context_t = type { ptr, ptr, ptr }
%union.anon.1 = type { %struct.anon.2 }
%struct.anon.2 = type { i8, [64 x i8], i64 }
%union.anon.4 = type { [64 x i8] }
%struct.mbedtls_ssl_tls13_handshake_secrets = type { [64 x i8], [64 x i8] }
%struct.mbedtls_ssl_ciphersuite_t = type { i32, ptr, i8, i8, i8, i8, i16, i16 }

@.str = private unnamed_addr constant [131 x i8] c"generated/home/dtcxzyw/WorkSpace/Projects/compilers/llvm-opt-benchmark/bench/lief/bench_build/mbed_src/library/ssl_tls13_generic.c\00", align 1
@.str.25 = private unnamed_addr constant [26 x i8] c"Reset SSL session for HRR\00", align 1
@.str.26 = private unnamed_addr constant [37 x i8] c"mbedtls_ssl_get_handshake_transcript\00", align 1
@.str.27 = private unnamed_addr constant [31 x i8] c"Truncated handshake transcript\00", align 1
@.str.28 = private unnamed_addr constant [27 x i8] c"mbedtls_ssl_reset_checksum\00", align 1
@.str.29 = private unnamed_addr constant [16 x i8] c"update_checksum\00", align 1

; Function Attrs: nounwind uwtable
define hidden i32 @mbedtls_ssl_reset_transcript_for_hrr(ptr noundef %0) #0 {
  %2 = alloca i32, align 4
  %3 = alloca ptr, align 8
  %4 = alloca i32, align 4
  %5 = alloca [68 x i8], align 16
  %6 = alloca i64, align 8
  %7 = alloca ptr, align 8
  %8 = alloca i32, align 4
  store ptr %0, ptr %3, align 8, !tbaa !3
  call void @llvm.lifetime.start.p0(i64 4, ptr %4) #10
  store i32 -110, ptr %4, align 4, !tbaa !8
  call void @llvm.lifetime.start.p0(i64 68, ptr %5) #10
  call void @llvm.lifetime.start.p0(i64 8, ptr %6) #10
  call void @llvm.lifetime.start.p0(i64 8, ptr %7) #10
  %9 = load ptr, ptr %3, align 8, !tbaa !3
  %10 = getelementptr inbounds nuw %struct.mbedtls_ssl_context, ptr %9, i32 0, i32 16
  %11 = load ptr, ptr %10, align 8, !tbaa !33
  %12 = getelementptr inbounds nuw %struct.mbedtls_ssl_handshake_params, ptr %11, i32 0, i32 10
  %13 = load ptr, ptr %12, align 8, !tbaa !34
  store ptr %13, ptr %7, align 8, !tbaa !100
  %14 = load ptr, ptr %3, align 8, !tbaa !3
  call void (ptr, i32, ptr, i32, ptr, ...) @mbedtls_debug_print_msg(ptr noundef %14, i32 noundef 3, ptr noundef @.str, i32 noundef 1427, ptr noundef @.str.25)
  %15 = load ptr, ptr %3, align 8, !tbaa !3
  %16 = load ptr, ptr %7, align 8, !tbaa !100
  %17 = getelementptr inbounds nuw %struct.mbedtls_ssl_ciphersuite_t, ptr %16, i32 0, i32 3
  %18 = load i8, ptr %17, align 1, !tbaa !50
  %19 = zext i8 %18 to i32
  %20 = getelementptr inbounds [68 x i8], ptr %5, i64 0, i64 0
  %21 = getelementptr inbounds i8, ptr %20, i64 4
  %22 = call i32 @mbedtls_ssl_get_handshake_transcript(ptr noundef %15, i32 noundef %19, ptr noundef %21, i64 noundef 64, ptr noundef %6)
  store i32 %22, ptr %4, align 4, !tbaa !8
  %23 = load i32, ptr %4, align 4, !tbaa !8
  %24 = icmp ne i32 %23, 0
  br i1 %24, label %25, label %29

25:                                               ; preds = %1
  %26 = load ptr, ptr %3, align 8, !tbaa !3
  %27 = load i32, ptr %4, align 4, !tbaa !8
  call void @mbedtls_debug_print_ret(ptr noundef %26, i32 noundef 1, ptr noundef @.str, i32 noundef 1434, ptr noundef @.str.26, i32 noundef %27)
  %28 = load i32, ptr %4, align 4, !tbaa !8
  store i32 %28, ptr %2, align 4
  store i32 1, ptr %8, align 4
  br label %67

29:                                               ; preds = %1
  %30 = getelementptr inbounds [68 x i8], ptr %5, i64 0, i64 0
  store i8 -2, ptr %30, align 16, !tbaa !25
  %31 = getelementptr inbounds [68 x i8], ptr %5, i64 0, i64 1
  store i8 0, ptr %31, align 1, !tbaa !25
  %32 = getelementptr inbounds [68 x i8], ptr %5, i64 0, i64 2
  store i8 0, ptr %32, align 2, !tbaa !25
  %33 = load i64, ptr %6, align 8, !tbaa !28
  %34 = trunc i64 %33 to i8
  %35 = getelementptr inbounds [68 x i8], ptr %5, i64 0, i64 3
  store i8 %34, ptr %35, align 1, !tbaa !25
  %36 = load i64, ptr %6, align 8, !tbaa !28
  %37 = add i64 %36, 4
  store i64 %37, ptr %6, align 8, !tbaa !28
  %38 = load ptr, ptr %3, align 8, !tbaa !3
  %39 = getelementptr inbounds [68 x i8], ptr %5, i64 0, i64 0
  %40 = load i64, ptr %6, align 8, !tbaa !28
  call void @mbedtls_debug_print_buf(ptr noundef %38, i32 noundef 4, ptr noundef @.str, i32 noundef 1446, ptr noundef @.str.27, ptr noundef %39, i64 noundef %40)
  %41 = load ptr, ptr %3, align 8, !tbaa !3
  %42 = call i32 @mbedtls_ssl_reset_checksum(ptr noundef %41)
  store i32 %42, ptr %4, align 4, !tbaa !8
  %43 = load i32, ptr %4, align 4, !tbaa !8
  %44 = icmp ne i32 %43, 0
  br i1 %44, label %45, label %49

45:                                               ; preds = %29
  %46 = load ptr, ptr %3, align 8, !tbaa !3
  %47 = load i32, ptr %4, align 4, !tbaa !8
  call void @mbedtls_debug_print_ret(ptr noundef %46, i32 noundef 1, ptr noundef @.str, i32 noundef 1451, ptr noundef @.str.28, i32 noundef %47)
  %48 = load i32, ptr %4, align 4, !tbaa !8
  store i32 %48, ptr %2, align 4
  store i32 1, ptr %8, align 4
  br label %67

49:                                               ; preds = %29
  %50 = load ptr, ptr %3, align 8, !tbaa !3
  %51 = getelementptr inbounds nuw %struct.mbedtls_ssl_context, ptr %50, i32 0, i32 16
  %52 = load ptr, ptr %51, align 8, !tbaa !33
  %53 = getelementptr inbounds nuw %struct.mbedtls_ssl_handshake_params, ptr %52, i32 0, i32 11
  %54 = load ptr, ptr %53, align 8, !tbaa !101
  %55 = load ptr, ptr %3, align 8, !tbaa !3
  %56 = getelementptr inbounds [68 x i8], ptr %5, i64 0, i64 0
  %57 = load i64, ptr %6, align 8, !tbaa !28
  %58 = call i32 %54(ptr noundef %55, ptr noundef %56, i64 noundef %57)
  store i32 %58, ptr %4, align 4, !tbaa !8
  %59 = load i32, ptr %4, align 4, !tbaa !8
  %60 = icmp ne i32 %59, 0
  br i1 %60, label %61, label %65

61:                                               ; preds = %49
  %62 = load ptr, ptr %3, align 8, !tbaa !3
  %63 = load i32, ptr %4, align 4, !tbaa !8
  call void @mbedtls_debug_print_ret(ptr noundef %62, i32 noundef 1, ptr noundef @.str, i32 noundef 1456, ptr noundef @.str.29, i32 noundef %63)
  %64 = load i32, ptr %4, align 4, !tbaa !8
  store i32 %64, ptr %2, align 4
  store i32 1, ptr %8, align 4
  br label %67

65:                                               ; preds = %49
  %66 = load i32, ptr %4, align 4, !tbaa !8
  store i32 %66, ptr %2, align 4
  store i32 1, ptr %8, align 4
  br label %67

67:                                               ; preds = %65, %61, %45, %25
  call void @llvm.lifetime.end.p0(i64 8, ptr %7) #10
  call void @llvm.lifetime.end.p0(i64 8, ptr %6) #10
  call void @llvm.lifetime.end.p0(i64 68, ptr %5) #10
  call void @llvm.lifetime.end.p0(i64 4, ptr %4) #10
  %68 = load i32, ptr %2, align 4
  ret i32 %68
}