; Function Attrs: nounwind uwtable
define hidden i32 @mbedtls_ssl_reset_transcript_for_hrr(ptr noundef %0) local_unnamed_addr #0 {
  %2 = alloca [68 x i8], align 16
  %3 = alloca i64, align 8
  call void @llvm.lifetime.start.p0(i64 68, ptr nonnull %2) #8
  call void @llvm.lifetime.start.p0(i64 8, ptr nonnull %3) #8
  %4 = getelementptr inbounds nuw i8, ptr %0, i64 112
  %5 = load ptr, ptr %4, align 8, !tbaa !23
  %6 = getelementptr inbounds nuw i8, ptr %5, i64 16
  %7 = load ptr, ptr %6, align 8, !tbaa !24
  tail call void (ptr, i32, ptr, i32, ptr, ...) @mbedtls_debug_print_msg(ptr noundef %0, i32 noundef 3, ptr noundef nonnull @.str, i32 noundef 1427, ptr noundef nonnull @.str.25) #8
  %8 = getelementptr inbounds nuw i8, ptr %7, i64 17
  %9 = load i8, ptr %8, align 1, !tbaa !41
  %10 = zext i8 %9 to i32
  %11 = getelementptr inbounds nuw i8, ptr %2, i64 4
  %12 = call i32 @mbedtls_ssl_get_handshake_transcript(ptr noundef %0, i32 noundef %10, ptr noundef nonnull %11, i64 noundef 64, ptr noundef nonnull %3) #8
  %.not = icmp eq i32 %12, 0
  br i1 %.not, label %14, label %13

13:                                               ; preds = %1
  call void @mbedtls_debug_print_ret(ptr noundef nonnull %0, i32 noundef 1, ptr noundef nonnull @.str, i32 noundef 1434, ptr noundef nonnull @.str.26, i32 noundef %12) #8
  br label %30

14:                                               ; preds = %1
  store i8 -2, ptr %2, align 16, !tbaa !17
  %15 = getelementptr inbounds nuw i8, ptr %2, i64 1
  store i8 0, ptr %15, align 1, !tbaa !17
  %16 = getelementptr inbounds nuw i8, ptr %2, i64 2
  store i8 0, ptr %16, align 2, !tbaa !17
  %17 = load i64, ptr %3, align 8, !tbaa !20
  %18 = trunc i64 %17 to i8
  %19 = getelementptr inbounds nuw i8, ptr %2, i64 3
  store i8 %18, ptr %19, align 1, !tbaa !17
  %20 = add i64 %17, 4
  store i64 %20, ptr %3, align 8, !tbaa !20
  call void @mbedtls_debug_print_buf(ptr noundef nonnull %0, i32 noundef 4, ptr noundef nonnull @.str, i32 noundef 1446, ptr noundef nonnull @.str.27, ptr noundef nonnull %2, i64 noundef %20) #8
  %21 = call i32 @mbedtls_ssl_reset_checksum(ptr noundef nonnull %0) #8
  %.not24 = icmp eq i32 %21, 0
  br i1 %.not24, label %23, label %22

22:                                               ; preds = %14
  call void @mbedtls_debug_print_ret(ptr noundef nonnull %0, i32 noundef 1, ptr noundef nonnull @.str, i32 noundef 1451, ptr noundef nonnull @.str.28, i32 noundef %21) #8
  br label %30

23:                                               ; preds = %14
  %24 = load ptr, ptr %4, align 8, !tbaa !23
  %25 = getelementptr inbounds nuw i8, ptr %24, i64 24
  %26 = load ptr, ptr %25, align 8, !tbaa !99
  %27 = load i64, ptr %3, align 8, !tbaa !20
  %28 = call i32 %26(ptr noundef nonnull %0, ptr noundef nonnull %2, i64 noundef %27) #8
  %.not25 = icmp eq i32 %28, 0
  br i1 %.not25, label %30, label %29

29:                                               ; preds = %23
  call void @mbedtls_debug_print_ret(ptr noundef nonnull %0, i32 noundef 1, ptr noundef nonnull @.str, i32 noundef 1456, ptr noundef nonnull @.str.29, i32 noundef %28) #8
  br label %30

30:                                               ; preds = %23, %29, %22, %13
  %.0 = phi i32 [ %12, %13 ], [ %21, %22 ], [ %28, %29 ], [ 0, %23 ]
  call void @llvm.lifetime.end.p0(i64 8, ptr nonnull %3) #8
  call void @llvm.lifetime.end.p0(i64 68, ptr nonnull %2) #8
  ret i32 %.0
}